; ModuleID = 'bench/openjdk/original/cgroupUtil_linux.ll'
source_filename = "bench/openjdk/original/cgroupUtil_linux.ll"
target datalayout = "e-m:e-p270:32:32-p271:32:32-p272:64:64-i64:64-i128:128-f80:128-n8:16:32:64-S128"
target triple = "x86_64-pc-linux-gnu"

%class.LogTagSet = type { ptr, i64, [5 x i32], [4 x i8], %class.LogOutputList, %class.LogDecorators, ptr }
%class.LogOutputList = type <{ [6 x ptr], i32, [4 x i8] }>
%class.LogDecorators = type { i32 }
%struct.__va_list_tag = type { i32, i32, ptr, ptr }

$_ZN7LogImplILN6LogTag4typeE105ELS1_25ELS1_0ELS1_0ELS1_0ELS1_0EE5writeILN8LogLevel4typeE1EEEvPKcz = comdat any

$_ZN16LogTagSetMappingILN6LogTag4typeE105ELS1_25ELS1_0ELS1_0ELS1_0ELS1_0EE7_tagsetE = comdat any

$_ZN9LogPrefixILN6LogTag4typeE105ELS1_25ELS1_0ELS1_0ELS1_0ELS1_0EE6prefixEPcm = comdat any

@.str = private unnamed_addr constant [42 x i8] c"CPU Quota count based on quota/period: %d\00", align 1
@.str.4 = private unnamed_addr constant [40 x i8] c"OSContainer::active_processor_count: %d\00", align 1
@_ZN16LogTagSetMappingILN6LogTag4typeE105ELS1_25ELS1_0ELS1_0ELS1_0ELS1_0EE7_tagsetE = linkonce_odr hidden global %class.LogTagSet zeroinitializer, comdat, align 8
@_ZGVN16LogTagSetMappingILN6LogTag4typeE105ELS1_25ELS1_0ELS1_0ELS1_0ELS1_0EE7_tagsetE = linkonce_odr hidden local_unnamed_addr global i64 0, comdat($_ZN16LogTagSetMappingILN6LogTag4typeE105ELS1_25ELS1_0ELS1_0ELS1_0ELS1_0EE7_tagsetE), align 8
@llvm.global_ctors = appending global [1 x { i32, ptr, ptr }] [{ i32, ptr, ptr } { i32 65535, ptr @__cxx_global_var_init.5, ptr @_ZN16LogTagSetMappingILN6LogTag4typeE105ELS1_25ELS1_0ELS1_0ELS1_0ELS1_0EE7_tagsetE }]
@llvm.used = appending global [1 x ptr] [ptr @_ZN16LogTagSetMappingILN6LogTag4typeE105ELS1_25ELS1_0ELS1_0ELS1_0ELS1_0EE7_tagsetE], section "llvm.metadata"

; Function Attrs: mustprogress nounwind uwtable
define hidden noundef i32 @_ZN10CgroupUtil15processor_countEP19CgroupCpuControlleri(ptr noundef %0, i32 noundef %1) local_unnamed_addr #0 align 2 {
  %3 = load ptr, ptr %0, align 8
  %4 = load ptr, ptr %3, align 8
  %5 = tail call noundef i32 %4(ptr noundef nonnull align 8 dereferenceable(8) %0) #6
  %6 = load ptr, ptr %0, align 8
  %7 = getelementptr inbounds i8, ptr %6, i64 8
  %8 = load ptr, ptr %7, align 8
  %9 = tail call noundef i32 %8(ptr noundef nonnull align 8 dereferenceable(8) %0) #6
  %10 = icmp sgt i32 %5, -1
  %11 = icmp sgt i32 %9, 0
  %or.cond = and i1 %10, %11
  br i1 %or.cond, label %12, label %.thread

12:                                               ; preds = %2
  %13 = uitofp nneg i32 %5 to float
  %14 = uitofp nneg i32 %9 to float
  %15 = fdiv float %13, %14
  %16 = tail call float @llvm.ceil.f32(float %15)
  %17 = fptosi float %16 to i32
  %.fr = freeze i32 %17
  %18 = load volatile ptr, ptr getelementptr inbounds (i8, ptr @_ZN16LogTagSetMappingILN6LogTag4typeE105ELS1_25ELS1_0ELS1_0ELS1_0ELS1_0EE7_tagsetE, i64 48), align 8
  %.not20 = icmp eq ptr %18, null
  br i1 %.not20, label %20, label %19

19:                                               ; preds = %12
  tail call void (ptr, ...) @_ZN7LogImplILN6LogTag4typeE105ELS1_25ELS1_0ELS1_0ELS1_0ELS1_0EE5writeILN8LogLevel4typeE1EEEvPKcz(ptr noundef nonnull @.str, i32 noundef %.fr)
  br label %20

20:                                               ; preds = %19, %12
  %.not = icmp eq i32 %.fr, 0
  br i1 %.not, label %.thread, label %21

.thread:                                          ; preds = %2, %20
  br label %21

21:                                               ; preds = %20, %.thread
  %22 = phi i32 [ %1, %.thread ], [ %.fr, %20 ]
  %23 = tail call noundef i32 @llvm.smin.i32(i32 %1, i32 %22)
  %24 = load volatile ptr, ptr getelementptr inbounds (i8, ptr @_ZN16LogTagSetMappingILN6LogTag4typeE105ELS1_25ELS1_0ELS1_0ELS1_0ELS1_0EE7_tagsetE, i64 48), align 8
  %.not21 = icmp eq ptr %24, null
  br i1 %.not21, label %26, label %25

25:                                               ; preds = %21
  tail call void (ptr, ...) @_ZN7LogImplILN6LogTag4typeE105ELS1_25ELS1_0ELS1_0ELS1_0ELS1_0EE5writeILN8LogLevel4typeE1EEEvPKcz(ptr noundef nonnull @.str.4, i32 noundef %23)
  br label %26

26:                                               ; preds = %21, %25
  ret i32 %23
}

; Function Attrs: mustprogress nocallback nofree nosync nounwind speculatable willreturn memory(none)
declare float @llvm.ceil.f32(float) #1

; Function Attrs: mustprogress nounwind uwtable
define linkonce_odr hidden void @_ZN7LogImplILN6LogTag4typeE105ELS1_25ELS1_0ELS1_0ELS1_0ELS1_0EE5writeILN8LogLevel4typeE1EEEvPKcz(ptr noundef %0, ...) local_unnamed_addr #0 comdat align 2 {
  %2 = alloca [1 x %struct.__va_list_tag], align 16
  call void @llvm.va_start.p0(ptr nonnull %2)
  call void @_ZN9LogTagSet6vwriteEN8LogLevel4typeEPKcP13__va_list_tag(ptr noundef nonnull align 8 dereferenceable(112) @_ZN16LogTagSetMappingILN6LogTag4typeE105ELS1_25ELS1_0ELS1_0ELS1_0ELS1_0EE7_tagsetE, i32 noundef 1, ptr noundef %0, ptr noundef nonnull %2) #6
  call void @llvm.va_end.p0(ptr nonnull %2)
  ret void
}

; Function Attrs: nounwind uwtable
define internal void @__cxx_global_var_init.5() #2 section ".text.startup" comdat($_ZN16LogTagSetMappingILN6LogTag4typeE105ELS1_25ELS1_0ELS1_0ELS1_0ELS1_0EE7_tagsetE) {
  %1 = load i8, ptr @_ZGVN16LogTagSetMappingILN6LogTag4typeE105ELS1_25ELS1_0ELS1_0ELS1_0ELS1_0EE7_tagsetE, align 8
  %2 = icmp eq i8 %1, 0
  br i1 %2, label %3, label %4

3:                                                ; preds = %0
  store i8 1, ptr @_ZGVN16LogTagSetMappingILN6LogTag4typeE105ELS1_25ELS1_0ELS1_0ELS1_0ELS1_0EE7_tagsetE, align 8
  tail call void @_ZN9LogTagSetC1EPFmPcmEN6LogTag4typeES4_S4_S4_S4_(ptr noundef nonnull align 8 dereferenceable(112) @_ZN16LogTagSetMappingILN6LogTag4typeE105ELS1_25ELS1_0ELS1_0ELS1_0ELS1_0EE7_tagsetE, ptr noundef nonnull @_ZN9LogPrefixILN6LogTag4typeE105ELS1_25ELS1_0ELS1_0ELS1_0ELS1_0EE6prefixEPcm, i32 noundef 105, i32 noundef 25, i32 noundef 0, i32 noundef 0, i32 noundef 0) #6
  br label %4

4:                                                ; preds = %3, %0
  ret void
}

; Function Attrs: mustprogress nounwind uwtable
define linkonce_odr hidden noundef i64 @_ZN9LogPrefixILN6LogTag4typeE105ELS1_25ELS1_0ELS1_0ELS1_0ELS1_0EE6prefixEPcm(ptr noundef %0, i64 noundef %1) #0 comdat align 2 {
  ret i64 0
}

declare void @_ZN9LogTagSetC1EPFmPcmEN6LogTag4typeES4_S4_S4_S4_(ptr noundef nonnull align 8 dereferenceable(112), ptr noundef, i32 noundef, i32 noundef, i32 noundef, i32 noundef, i32 noundef) unnamed_addr #3

; Function Attrs: mustprogress nocallback nofree nosync nounwind willreturn
declare void @llvm.va_start.p0(ptr) #4

; Function Attrs: mustprogress nocallback nofree nosync nounwind willreturn
declare void @llvm.va_end.p0(ptr) #4

declare void @_ZN9LogTagSet6vwriteEN8LogLevel4typeEPKcP13__va_list_tag(ptr noundef nonnull align 8 dereferenceable(112), i32 noundef, ptr noundef, ptr noundef) local_unnamed_addr #3

; Function Attrs: nocallback nofree nosync nounwind speculatable willreturn memory(none)
declare i32 @llvm.smin.i32(i32, i32) #5


!llvm.module.flags = !{!0, !1, !2, !3, !4, !5}

!0 = !{i32 7, !"Dwarf Version", i32 5}
!1 = !{i32 2, !"Debug Info Version", i32 3}
!2 = !{i32 1, !"wchar_size", i32 4}
!3 = !{i32 8, !"PIC Level", i32 2}
!4 = !{i32 7, !"uwtable", i32 2}
!5 = !{i32 7, !"frame-pointer", i32 2}
